target datalayout = "e-m:e-p270:32:32-p271:32:32-p272:64:64-i64:64-i128:128-f80:128-n8:16:32:64-S128"
target triple = "x86_64-pc-linux-gnu"

; Function Attrs: inlinehint nounwind uwtable
define internal float @sqrdiff(float noundef %0, float noundef %1) #3 {
  %3 = alloca float, align 4
  %4 = alloca float, align 4
  %5 = alloca float, align 4
  store float %0, ptr %3, align 4, !tbaa !16
  store float %1, ptr %4, align 4, !tbaa !16
  call void @llvm.lifetime.start.p0(i64 4, ptr %5) #9
  %6 = load float, ptr %3, align 4, !tbaa !16
  %7 = load float, ptr %4, align 4, !tbaa !16
  %8 = fsub nsz float %6, %7
  store float %8, ptr %5, align 4, !tbaa !16
  %9 = load float, ptr %5, align 4, !tbaa !16
  %10 = load float, ptr %5, align 4, !tbaa !16
  %11 = fmul nsz float %9, %10
  call void @llvm.lifetime.end.p0(i64 4, ptr %5) #9
  ret float %11
}

; Function Attrs: nounwind uwtable
define internal void @compute_cache_c(ptr noundef %0, ptr noundef %1, i64 noundef %2, i64 noundef %3, i64 noundef %4, i64 noundef %5) #0 {
  %7 = alloca ptr, align 8
  %8 = alloca ptr, align 8
  %9 = alloca i64, align 8
  %10 = alloca i64, align 8
  %11 = alloca i64, align 8
  %12 = alloca i64, align 8
  %13 = alloca i32, align 4
  %14 = alloca i32, align 4
  store ptr %0, ptr %7, align 8, !tbaa !12
  store ptr %1, ptr %8, align 8, !tbaa !12
  store i64 %2, ptr %9, align 8, !tbaa !14
  store i64 %3, ptr %10, align 8, !tbaa !14
  store i64 %4, ptr %11, align 8, !tbaa !14
  store i64 %5, ptr %12, align 8, !tbaa !14
  call void @llvm.lifetime.start.p0(i64 4, ptr %13) #9
  store i32 0, ptr %13, align 4, !tbaa !18
  call void @llvm.lifetime.start.p0(i64 4, ptr %14) #9
  %15 = load i64, ptr %12, align 8, !tbaa !14
  %16 = trunc i64 %15 to i32
  store i32 %16, ptr %14, align 4, !tbaa !18
  br label %17

17:                                               ; preds = %64, %6
  %18 = load i32, ptr %14, align 4, !tbaa !18
  %19 = sext i32 %18 to i64
  %20 = load i64, ptr %12, align 8, !tbaa !14
  %21 = load i64, ptr %9, align 8, !tbaa !14
  %22 = add nsw i64 %20, %21
  %23 = icmp slt i64 %19, %22
  br i1 %23, label %25, label %24

24:                                               ; preds = %17
  call void @llvm.lifetime.end.p0(i64 4, ptr %14) #9
  br label %69

25:                                               ; preds = %17
  %26 = load ptr, ptr %8, align 8, !tbaa !12
  %27 = load i64, ptr %11, align 8, !tbaa !14
  %28 = load i64, ptr %10, align 8, !tbaa !14
  %29 = sub nsw i64 %27, %28
  %30 = sub nsw i64 %29, 1
  %31 = getelementptr inbounds float, ptr %26, i64 %30
  %32 = load float, ptr %31, align 4, !tbaa !16
  %33 = load ptr, ptr %8, align 8, !tbaa !12
  %34 = load i32, ptr %14, align 4, !tbaa !18
  %35 = sext i32 %34 to i64
  %36 = load i64, ptr %10, align 8, !tbaa !14
  %37 = sub nsw i64 %35, %36
  %38 = sub nsw i64 %37, 1
  %39 = getelementptr inbounds float, ptr %33, i64 %38
  %40 = load float, ptr %39, align 4, !tbaa !16
  %41 = call nsz float @sqrdiff(float noundef %32, float noundef %40)
  %42 = fneg nsz float %41
  %43 = load ptr, ptr %8, align 8, !tbaa !12
  %44 = load i64, ptr %11, align 8, !tbaa !14
  %45 = load i64, ptr %10, align 8, !tbaa !14
  %46 = add nsw i64 %44, %45
  %47 = getelementptr inbounds float, ptr %43, i64 %46
  %48 = load float, ptr %47, align 4, !tbaa !16
  %49 = load ptr, ptr %8, align 8, !tbaa !12
  %50 = load i32, ptr %14, align 4, !tbaa !18
  %51 = sext i32 %50 to i64
  %52 = load i64, ptr %10, align 8, !tbaa !14
  %53 = add nsw i64 %51, %52
  %54 = getelementptr inbounds float, ptr %49, i64 %53
  %55 = load float, ptr %54, align 4, !tbaa !16
  %56 = call nsz float @sqrdiff(float noundef %48, float noundef %55)
  %57 = fadd nsz float %42, %56
  %58 = load ptr, ptr %7, align 8, !tbaa !12
  %59 = load i32, ptr %13, align 4, !tbaa !18
  %60 = sext i32 %59 to i64
  %61 = getelementptr inbounds float, ptr %58, i64 %60
  %62 = load float, ptr %61, align 4, !tbaa !16
  %63 = fadd nsz float %62, %57
  store float %63, ptr %61, align 4, !tbaa !16
  br label %64

64:                                               ; preds = %25
  %65 = load i32, ptr %14, align 4, !tbaa !18
  %66 = add nsw i32 %65, 1
  store i32 %66, ptr %14, align 4, !tbaa !18
  %67 = load i32, ptr %13, align 4, !tbaa !18
  %68 = add nsw i32 %67, 1
  store i32 %68, ptr %13, align 4, !tbaa !18
  br label %17, !llvm.loop !22

69:                                               ; preds = %24
  call void @llvm.lifetime.end.p0(i64 4, ptr %13) #9
  ret void
}