; Function Attrs: nofree norecurse nosync nounwind memory(argmem: readwrite) uwtable
define internal void @compute_cache_c(ptr noundef captures(none) %0, ptr noundef readonly captures(none) %1, i64 noundef %2, i64 noundef %3, i64 noundef %4, i64 noundef %5) #2 {
  %7 = add nsw i64 %5, %2
  %sext = shl i64 %5, 32
  %8 = ashr exact i64 %sext, 32
  %9 = icmp sgt i64 %7, %8
  br i1 %9, label %.lr.ph, label %._crit_edge

.lr.ph:                                           ; preds = %6
  %10 = xor i64 %3, -1
  %11 = getelementptr float, ptr %1, i64 %4
  %12 = getelementptr float, ptr %11, i64 %10
  %13 = getelementptr float, ptr %1, i64 %10
  %14 = getelementptr float, ptr %11, i64 %3
  %15 = getelementptr float, ptr %1, i64 %3
  br label %16

._crit_edge:                                      ; preds = %16, %6
  ret void

16:                                               ; preds = %.lr.ph, %16
  %indvars.iv23 = phi i64 [ 0, %.lr.ph ], [ %indvars.iv.next24, %16 ]
  %indvars.iv = phi i64 [ %8, %.lr.ph ], [ %indvars.iv.next, %16 ]
  %17 = load float, ptr %12, align 4, !tbaa !10
  %18 = getelementptr float, ptr %13, i64 %indvars.iv
  %19 = load float, ptr %18, align 4, !tbaa !10
  %20 = fsub nsz float %17, %19
  %21 = fmul nsz float %20, %20
  %22 = load float, ptr %14, align 4, !tbaa !10
  %23 = getelementptr float, ptr %15, i64 %indvars.iv
  %24 = load float, ptr %23, align 4, !tbaa !10
  %25 = fsub nsz float %22, %24
  %26 = fmul nsz float %25, %25
  %27 = fsub nsz float %26, %21
  %28 = getelementptr inbounds nuw float, ptr %0, i64 %indvars.iv23
  %29 = load float, ptr %28, align 4, !tbaa !10
  %30 = fadd nsz float %29, %27
  store float %30, ptr %28, align 4, !tbaa !10
  %indvars.iv.next = add nsw i64 %indvars.iv, 1
  %indvars.iv.next24 = add nuw nsw i64 %indvars.iv23, 1
  %31 = icmp sgt i64 %7, %indvars.iv.next
  br i1 %31, label %16, label %._crit_edge, !llvm.loop !14
}